ARM GAS  C:\Users\jdrd3\AppData\Local\Temp\ccWtiblr.s 			page 1


   1              		.syntax unified
   2              		.cpu cortex-m3
   3              		.fpu softvfp
   4              		.eabi_attribute 20, 1
   5              		.eabi_attribute 21, 1
   6              		.eabi_attribute 23, 3
   7              		.eabi_attribute 24, 1
   8              		.eabi_attribute 25, 1
   9              		.eabi_attribute 26, 1
  10              		.eabi_attribute 30, 1
  11              		.eabi_attribute 34, 1
  12              		.eabi_attribute 18, 4
  13              		.thumb
  14              		.syntax unified
  15              		.file	"main.c"
  16              		.text
  17              	.Ltext0:
  18              		.cfi_sections	.debug_frame
  19              		.section	.text.Aumentar,"ax",%progbits
  20              		.align	2
  21              		.global	Aumentar
  22              		.thumb
  23              		.thumb_func
  24              		.type	Aumentar, %function
  25              	Aumentar:
  26              	.LFB63:
  27              		.file 1 "main.c"
   1:main.c        **** /* ========================================
   2:main.c        ****  *
   3:main.c        ****  * Copyright YOUR COMPANY, THE YEAR
   4:main.c        ****  * All Rights Reserved
   5:main.c        ****  * UNPUBLISHED, LICENSED SOFTWARE.
   6:main.c        ****  *
   7:main.c        ****  * CONFIDENTIAL AND PROPRIETARY INFORMATION
   8:main.c        ****  * WHICH IS THE PROPERTY OF your company.
   9:main.c        ****  *
  10:main.c        ****  * ========================================
  11:main.c        **** */
  12:main.c        **** #include "project.h"
  13:main.c        **** 
  14:main.c        **** int16 Contador;
  15:main.c        **** 
  16:main.c        ****  CY_ISR(Aumentar){
  28              		.loc 1 16 0
  29              		.cfi_startproc
  30              		@ args = 0, pretend = 0, frame = 0
  31              		@ frame_needed = 0, uses_anonymous_args = 0
  32 0000 10B5     		push	{r4, lr}
  33              		.cfi_def_cfa_offset 8
  34              		.cfi_offset 4, -8
  35              		.cfi_offset 14, -4
  17:main.c        ****         LCD_Position(1,5);
  36              		.loc 1 17 0
  37 0002 0521     		movs	r1, #5
  38 0004 0120     		movs	r0, #1
  39 0006 FFF7FEFF 		bl	LCD_Position
  40              	.LVL0:
ARM GAS  C:\Users\jdrd3\AppData\Local\Temp\ccWtiblr.s 			page 2


  18:main.c        ****         LCD_PrintString("         ");
  41              		.loc 1 18 0
  42 000a 1448     		ldr	r0, .L5
  43 000c FFF7FEFF 		bl	LCD_PrintString
  44              	.LVL1:
  19:main.c        ****      Contador=Contador+30;  
  45              		.loc 1 19 0
  46 0010 134B     		ldr	r3, .L5+4
  47 0012 B3F90020 		ldrsh	r2, [r3]
  48 0016 02F11E00 		add	r0, r2, #30
  49 001a 00B2     		sxth	r0, r0
  50 001c 1880     		strh	r0, [r3]	@ movhi
  20:main.c        ****         if (Contador<255){
  51              		.loc 1 20 0
  52 001e FE28     		cmp	r0, #254
  53 0020 0BDC     		bgt	.L2
  21:main.c        ****             PWM_WriteCompare(Contador);
  54              		.loc 1 21 0
  55 0022 C0B2     		uxtb	r0, r0
  56 0024 FFF7FEFF 		bl	PWM_WriteCompare
  57              	.LVL2:
  22:main.c        ****           /*  ResetPWM_Write(1);
  23:main.c        ****             ResetPWM_Write(0);*/
  24:main.c        ****             LCD_Position(1,5);
  58              		.loc 1 24 0
  59 0028 0521     		movs	r1, #5
  60 002a 0120     		movs	r0, #1
  61 002c FFF7FEFF 		bl	LCD_Position
  62              	.LVL3:
  25:main.c        ****             LCD_PrintNumber(Contador);
  63              		.loc 1 25 0
  64 0030 0B4B     		ldr	r3, .L5+4
  65 0032 1888     		ldrh	r0, [r3]
  66 0034 FFF7FEFF 		bl	LCD_PrintNumber
  67              	.LVL4:
  68 0038 08E0     		b	.L3
  69              	.L2:
  26:main.c        ****         }else{
  27:main.c        ****         
  28:main.c        ****             Contador=Contador-30;
  70              		.loc 1 28 0
  71 003a 094C     		ldr	r4, .L5+4
  72 003c 2280     		strh	r2, [r4]	@ movhi
  29:main.c        ****             LCD_Position(1,5);
  73              		.loc 1 29 0
  74 003e 0521     		movs	r1, #5
  75 0040 0120     		movs	r0, #1
  76 0042 FFF7FEFF 		bl	LCD_Position
  77              	.LVL5:
  30:main.c        ****             LCD_PrintNumber(Contador);
  78              		.loc 1 30 0
  79 0046 2088     		ldrh	r0, [r4]
  80 0048 FFF7FEFF 		bl	LCD_PrintNumber
  81              	.LVL6:
  82              	.L3:
  31:main.c        ****         }
  32:main.c        ****         CyDelay(500);
ARM GAS  C:\Users\jdrd3\AppData\Local\Temp\ccWtiblr.s 			page 3


  83              		.loc 1 32 0
  84 004c 4FF4FA70 		mov	r0, #500
  85 0050 FFF7FEFF 		bl	CyDelay
  86              	.LVL7:
  33:main.c        ****         InAumentar_ClearInterrupt();
  87              		.loc 1 33 0
  88 0054 FFF7FEFF 		bl	InAumentar_ClearInterrupt
  89              	.LVL8:
  90 0058 10BD     		pop	{r4, pc}
  91              	.L6:
  92 005a 00BF     		.align	2
  93              	.L5:
  94 005c 00000000 		.word	.LC0
  95 0060 00000000 		.word	Contador
  96              		.cfi_endproc
  97              	.LFE63:
  98              		.size	Aumentar, .-Aumentar
  99              		.section	.text.Disminuir,"ax",%progbits
 100              		.align	2
 101              		.global	Disminuir
 102              		.thumb
 103              		.thumb_func
 104              		.type	Disminuir, %function
 105              	Disminuir:
 106              	.LFB64:
  34:main.c        ****     }
  35:main.c        **** 
  36:main.c        **** 
  37:main.c        ****  CY_ISR(Disminuir){
 107              		.loc 1 37 0
 108              		.cfi_startproc
 109              		@ args = 0, pretend = 0, frame = 0
 110              		@ frame_needed = 0, uses_anonymous_args = 0
 111 0000 10B5     		push	{r4, lr}
 112              		.cfi_def_cfa_offset 8
 113              		.cfi_offset 4, -8
 114              		.cfi_offset 14, -4
  38:main.c        ****         LCD_Position(1,5);
 115              		.loc 1 38 0
 116 0002 0521     		movs	r1, #5
 117 0004 0120     		movs	r0, #1
 118 0006 FFF7FEFF 		bl	LCD_Position
 119              	.LVL9:
  39:main.c        ****         LCD_PrintString("         ");
 120              		.loc 1 39 0
 121 000a 1448     		ldr	r0, .L11
 122 000c FFF7FEFF 		bl	LCD_PrintString
 123              	.LVL10:
  40:main.c        ****          Contador=Contador-30;  
 124              		.loc 1 40 0
 125 0010 134B     		ldr	r3, .L11+4
 126 0012 B3F90020 		ldrsh	r2, [r3]
 127 0016 A2F11E00 		sub	r0, r2, #30
 128 001a 00B2     		sxth	r0, r0
 129 001c 1880     		strh	r0, [r3]	@ movhi
  41:main.c        ****         if (Contador>0){
 130              		.loc 1 41 0
ARM GAS  C:\Users\jdrd3\AppData\Local\Temp\ccWtiblr.s 			page 4


 131 001e 0028     		cmp	r0, #0
 132 0020 0BDD     		ble	.L8
  42:main.c        ****             PWM_WriteCompare(Contador);
 133              		.loc 1 42 0
 134 0022 C0B2     		uxtb	r0, r0
 135 0024 FFF7FEFF 		bl	PWM_WriteCompare
 136              	.LVL11:
  43:main.c        ****           /*  ResetPWM_Write(1);
  44:main.c        ****             ResetPWM_Write(0);*/
  45:main.c        ****             LCD_Position(1,5);
 137              		.loc 1 45 0
 138 0028 0521     		movs	r1, #5
 139 002a 0120     		movs	r0, #1
 140 002c FFF7FEFF 		bl	LCD_Position
 141              	.LVL12:
  46:main.c        ****             LCD_PrintNumber(Contador);
 142              		.loc 1 46 0
 143 0030 0B4B     		ldr	r3, .L11+4
 144 0032 1888     		ldrh	r0, [r3]
 145 0034 FFF7FEFF 		bl	LCD_PrintNumber
 146              	.LVL13:
 147 0038 08E0     		b	.L9
 148              	.L8:
  47:main.c        ****            
  48:main.c        ****         }else{
  49:main.c        ****         
  50:main.c        ****         Contador=Contador+30;
 149              		.loc 1 50 0
 150 003a 094C     		ldr	r4, .L11+4
 151 003c 2280     		strh	r2, [r4]	@ movhi
  51:main.c        ****             LCD_Position(1,5);
 152              		.loc 1 51 0
 153 003e 0521     		movs	r1, #5
 154 0040 0120     		movs	r0, #1
 155 0042 FFF7FEFF 		bl	LCD_Position
 156              	.LVL14:
  52:main.c        ****             LCD_PrintNumber(Contador);
 157              		.loc 1 52 0
 158 0046 2088     		ldrh	r0, [r4]
 159 0048 FFF7FEFF 		bl	LCD_PrintNumber
 160              	.LVL15:
 161              	.L9:
  53:main.c        ****         }
  54:main.c        ****     CyDelay(500);
 162              		.loc 1 54 0
 163 004c 4FF4FA70 		mov	r0, #500
 164 0050 FFF7FEFF 		bl	CyDelay
 165              	.LVL16:
  55:main.c        ****         InDisminuir_ClearInterrupt();
 166              		.loc 1 55 0
 167 0054 FFF7FEFF 		bl	InDisminuir_ClearInterrupt
 168              	.LVL17:
 169 0058 10BD     		pop	{r4, pc}
 170              	.L12:
 171 005a 00BF     		.align	2
 172              	.L11:
 173 005c 00000000 		.word	.LC0
ARM GAS  C:\Users\jdrd3\AppData\Local\Temp\ccWtiblr.s 			page 5


 174 0060 00000000 		.word	Contador
 175              		.cfi_endproc
 176              	.LFE64:
 177              		.size	Disminuir, .-Disminuir
 178              		.section	.text.main,"ax",%progbits
 179              		.align	2
 180              		.global	main
 181              		.thumb
 182              		.thumb_func
 183              		.type	main, %function
 184              	main:
 185              	.LFB65:
  56:main.c        ****     
  57:main.c        ****     }
  58:main.c        **** 
  59:main.c        **** 
  60:main.c        **** 
  61:main.c        **** 
  62:main.c        **** int main(void)
  63:main.c        **** {
 186              		.loc 1 63 0
 187              		.cfi_startproc
 188              		@ Volatile: function does not return.
 189              		@ args = 0, pretend = 0, frame = 0
 190              		@ frame_needed = 0, uses_anonymous_args = 0
 191 0000 08B5     		push	{r3, lr}
 192              		.cfi_def_cfa_offset 8
 193              		.cfi_offset 3, -8
 194              		.cfi_offset 14, -4
  64:main.c        ****     
  65:main.c        ****     LCD_Start();
 195              		.loc 1 65 0
 196 0002 FFF7FEFF 		bl	LCD_Start
 197              	.LVL18:
  66:main.c        ****     LCD_Position(0,3);
 198              		.loc 1 66 0
 199 0006 0321     		movs	r1, #3
 200 0008 0020     		movs	r0, #0
 201 000a FFF7FEFF 		bl	LCD_Position
 202              	.LVL19:
  67:main.c        ****     LCD_PrintString("CICLO UTIL:");
 203              		.loc 1 67 0
 204 000e 0B48     		ldr	r0, .L16
 205 0010 FFF7FEFF 		bl	LCD_PrintString
 206              	.LVL20:
  68:main.c        **** 
  69:main.c        ****     CyGlobalIntEnable; /* Enable global interrupts. */
 207              		.loc 1 69 0
 208              		.syntax unified
 209              	@ 69 "main.c" 1
 210 0014 62B6     		CPSIE   i
 211              	@ 0 "" 2
  70:main.c        **** 
  71:main.c        ****     Aumentar_StartEx(Aumentar);
 212              		.loc 1 71 0
 213              		.thumb
 214              		.syntax unified
ARM GAS  C:\Users\jdrd3\AppData\Local\Temp\ccWtiblr.s 			page 6


 215 0016 0A48     		ldr	r0, .L16+4
 216 0018 FFF7FEFF 		bl	Aumentar_StartEx
 217              	.LVL21:
  72:main.c        ****     Disminuir_StartEx(Disminuir);
 218              		.loc 1 72 0
 219 001c 0948     		ldr	r0, .L16+8
 220 001e FFF7FEFF 		bl	Disminuir_StartEx
 221              	.LVL22:
  73:main.c        ****     
  74:main.c        ****     PWM_Start();
 222              		.loc 1 74 0
 223 0022 FFF7FEFF 		bl	PWM_Start
 224              	.LVL23:
  75:main.c        ****     Contador=101;
 225              		.loc 1 75 0
 226 0026 084C     		ldr	r4, .L16+12
 227 0028 6523     		movs	r3, #101
 228 002a 2380     		strh	r3, [r4]	@ movhi
  76:main.c        ****     LCD_Position(1,5);
 229              		.loc 1 76 0
 230 002c 0521     		movs	r1, #5
 231 002e 0120     		movs	r0, #1
 232 0030 FFF7FEFF 		bl	LCD_Position
 233              	.LVL24:
  77:main.c        ****     
  78:main.c        ****     LCD_PrintNumber(Contador);
 234              		.loc 1 78 0
 235 0034 2088     		ldrh	r0, [r4]
 236 0036 FFF7FEFF 		bl	LCD_PrintNumber
 237              	.LVL25:
 238              	.L14:
 239 003a FEE7     		b	.L14
 240              	.L17:
 241              		.align	2
 242              	.L16:
 243 003c 0C000000 		.word	.LC1
 244 0040 00000000 		.word	Aumentar
 245 0044 00000000 		.word	Disminuir
 246 0048 00000000 		.word	Contador
 247              		.cfi_endproc
 248              	.LFE65:
 249              		.size	main, .-main
 250              		.comm	Contador,2,2
 251              		.section	.rodata.str1.4,"aMS",%progbits,1
 252              		.align	2
 253              	.LC0:
 254 0000 20202020 		.ascii	"         \000"
 254      20202020 
 254      2000
 255 000a 0000     		.space	2
 256              	.LC1:
 257 000c 4349434C 		.ascii	"CICLO UTIL:\000"
 257      4F205554 
 257      494C3A00 
 258              		.text
 259              	.Letext0:
 260              		.file 2 "c:\\program files (x86)\\cypress\\psoc creator\\4.2\\psoc creator\\import\\gnu\\arm\\5.4.
ARM GAS  C:\Users\jdrd3\AppData\Local\Temp\ccWtiblr.s 			page 7


 261              		.file 3 "c:\\program files (x86)\\cypress\\psoc creator\\4.2\\psoc creator\\import\\gnu\\arm\\5.4.
 262              		.file 4 "Generated_Source\\PSoC5/cytypes.h"
 263              		.file 5 "Generated_Source\\PSoC5/core_cm3.h"
 264              		.file 6 "Generated_Source\\PSoC5/LCD.h"
 265              		.file 7 "Generated_Source\\PSoC5/PWM.h"
 266              		.file 8 "Generated_Source\\PSoC5/CyLib.h"
 267              		.file 9 "Generated_Source\\PSoC5/InAumentar.h"
 268              		.file 10 "Generated_Source\\PSoC5/InDisminuir.h"
 269              		.file 11 "Generated_Source\\PSoC5/Aumentar.h"
 270              		.file 12 "Generated_Source\\PSoC5/Disminuir.h"